target datalayout = "e-m:e-p270:32:32-p271:32:32-p272:64:64-i64:64-i128:128-f80:128-n8:16:32:64-S128"
target triple = "x86_64-pc-linux-gnu"

%struct.Vec_Int_t_ = type { i32, i32, ptr }
%struct.Vec_Bit_t_ = type { i32, i32, ptr }

; Function Attrs: inlinehint nounwind uwtable
define internal void @Vec_BitFree(ptr noundef %0) #3 {
  %2 = alloca ptr, align 8
  store ptr %0, ptr %2, align 8, !tbaa !96
  %3 = load ptr, ptr %2, align 8, !tbaa !96
  %4 = getelementptr inbounds nuw %struct.Vec_Bit_t_, ptr %3, i32 0, i32 2
  %5 = load ptr, ptr %4, align 8, !tbaa !98
  %6 = icmp ne ptr %5, null
  br i1 %6, label %7, label %13

7:                                                ; preds = %1
  %8 = load ptr, ptr %2, align 8, !tbaa !96
  %9 = getelementptr inbounds nuw %struct.Vec_Bit_t_, ptr %8, i32 0, i32 2
  %10 = load ptr, ptr %9, align 8, !tbaa !98
  call void @free(ptr noundef %10) #12
  %11 = load ptr, ptr %2, align 8, !tbaa !96
  %12 = getelementptr inbounds nuw %struct.Vec_Bit_t_, ptr %11, i32 0, i32 2
  store ptr null, ptr %12, align 8, !tbaa !98
  br label %14

13:                                               ; preds = %1
  br label %14

14:                                               ; preds = %13, %7
  %15 = load ptr, ptr %2, align 8, !tbaa !96
  %16 = icmp ne ptr %15, null
  br i1 %16, label %17, label %19

17:                                               ; preds = %14
  %18 = load ptr, ptr %2, align 8, !tbaa !96
  call void @free(ptr noundef %18) #12
  store ptr null, ptr %2, align 8, !tbaa !96
  br label %20

19:                                               ; preds = %14
  br label %20

20:                                               ; preds = %19, %17
  ret void
}

; Function Attrs: inlinehint nounwind uwtable
define internal void @Vec_IntShrink(ptr noundef %0, i32 noundef %1) #3 {
  %3 = alloca ptr, align 8
  %4 = alloca i32, align 4
  store ptr %0, ptr %3, align 8, !tbaa !27
  store i32 %1, ptr %4, align 4, !tbaa !3
  %5 = load i32, ptr %4, align 4, !tbaa !3
  %6 = load ptr, ptr %3, align 8, !tbaa !27
  %7 = getelementptr inbounds nuw %struct.Vec_Int_t_, ptr %6, i32 0, i32 1
  store i32 %5, ptr %7, align 4, !tbaa !38
  ret void
}

; Function Attrs: inlinehint nounwind uwtable
define internal ptr @Vec_IntArray(ptr noundef %0) #3 {
  %2 = alloca ptr, align 8
  store ptr %0, ptr %2, align 8, !tbaa !27
  %3 = load ptr, ptr %2, align 8, !tbaa !27
  %4 = getelementptr inbounds nuw %struct.Vec_Int_t_, ptr %3, i32 0, i32 2
  %5 = load ptr, ptr %4, align 8, !tbaa !35
  ret ptr %5
}

; Function Attrs: inlinehint nounwind uwtable
define internal i32 @Vec_BitEntry(ptr noundef %0, i32 noundef %1) #3 {
  %3 = alloca ptr, align 8
  %4 = alloca i32, align 4
  store ptr %0, ptr %3, align 8, !tbaa !96
  store i32 %1, ptr %4, align 4, !tbaa !3
  %5 = load ptr, ptr %3, align 8, !tbaa !96
  %6 = getelementptr inbounds nuw %struct.Vec_Bit_t_, ptr %5, i32 0, i32 2
  %7 = load ptr, ptr %6, align 8, !tbaa !98
  %8 = load i32, ptr %4, align 4, !tbaa !3
  %9 = ashr i32 %8, 5
  %10 = sext i32 %9 to i64
  %11 = getelementptr inbounds i32, ptr %7, i64 %10
  %12 = load i32, ptr %11, align 4, !tbaa !3
  %13 = load i32, ptr %4, align 4, !tbaa !3
  %14 = and i32 %13, 31
  %15 = ashr i32 %12, %14
  %16 = and i32 %15, 1
  ret i32 %16
}

; Function Attrs: inlinehint nounwind uwtable
define internal i32 @Vec_IntEntry(ptr noundef %0, i32 noundef %1) #3 {
  %3 = alloca ptr, align 8
  %4 = alloca i32, align 4
  store ptr %0, ptr %3, align 8, !tbaa !27
  store i32 %1, ptr %4, align 4, !tbaa !3
  %5 = load ptr, ptr %3, align 8, !tbaa !27
  %6 = getelementptr inbounds nuw %struct.Vec_Int_t_, ptr %5, i32 0, i32 2
  %7 = load ptr, ptr %6, align 8, !tbaa !35
  %8 = load i32, ptr %4, align 4, !tbaa !3
  %9 = sext i32 %8 to i64
  %10 = getelementptr inbounds i32, ptr %7, i64 %9
  %11 = load i32, ptr %10, align 4, !tbaa !3
  ret i32 %11
}

; Function Attrs: inlinehint nounwind uwtable
define internal i32 @Vec_IntSize(ptr noundef %0) #3 {
  %2 = alloca ptr, align 8
  store ptr %0, ptr %2, align 8, !tbaa !27
  %3 = load ptr, ptr %2, align 8, !tbaa !27
  %4 = getelementptr inbounds nuw %struct.Vec_Int_t_, ptr %3, i32 0, i32 1
  %5 = load i32, ptr %4, align 4, !tbaa !38
  ret i32 %5
}

; Function Attrs: nounwind uwtable
define void @Ree_ManRemoveContained(ptr noundef %0, ptr noundef %1) #0 {
  %3 = alloca ptr, align 8
  %4 = alloca ptr, align 8
  %5 = alloca ptr, align 8
  %6 = alloca i32, align 4
  %7 = alloca i32, align 4
  store ptr %0, ptr %3, align 8, !tbaa !25
  store ptr %1, ptr %4, align 8, !tbaa !27
  call void @llvm.lifetime.start.p0(i64 8, ptr %5) #12
  %8 = load ptr, ptr %3, align 8, !tbaa !25
  %9 = load ptr, ptr %4, align 8, !tbaa !27
  %10 = call ptr @Ree_CollectInsiders(ptr noundef %8, ptr noundef %9)
  store ptr %10, ptr %5, align 8, !tbaa !96
  call void @llvm.lifetime.start.p0(i64 4, ptr %6) #12
  call void @llvm.lifetime.start.p0(i64 4, ptr %7) #12
  store i32 0, ptr %7, align 4, !tbaa !3
  store i32 0, ptr %6, align 4, !tbaa !3
  br label %11

11:                                               ; preds = %58, %2
  %12 = load i32, ptr %6, align 4, !tbaa !3
  %13 = mul nsw i32 6, %12
  %14 = load ptr, ptr %4, align 8, !tbaa !27
  %15 = call i32 @Vec_IntSize(ptr noundef %14)
  %16 = icmp slt i32 %13, %15
  br i1 %16, label %17, label %61

17:                                               ; preds = %11
  %18 = load ptr, ptr %4, align 8, !tbaa !27
  %19 = load i32, ptr %6, align 4, !tbaa !3
  %20 = mul nsw i32 6, %19
  %21 = add nsw i32 %20, 2
  %22 = call i32 @Vec_IntEntry(ptr noundef %18, i32 noundef %21)
  %23 = icmp eq i32 %22, 0
  br i1 %23, label %24, label %44

24:                                               ; preds = %17
  %25 = load ptr, ptr %5, align 8, !tbaa !96
  %26 = load ptr, ptr %4, align 8, !tbaa !27
  %27 = load i32, ptr %6, align 4, !tbaa !3
  %28 = mul nsw i32 6, %27
  %29 = add nsw i32 %28, 3
  %30 = call i32 @Vec_IntEntry(ptr noundef %26, i32 noundef %29)
  %31 = call i32 @Vec_BitEntry(ptr noundef %25, i32 noundef %30)
  %32 = icmp ne i32 %31, 0
  br i1 %32, label %33, label %43

33:                                               ; preds = %24
  %34 = load ptr, ptr %5, align 8, !tbaa !96
  %35 = load ptr, ptr %4, align 8, !tbaa !27
  %36 = load i32, ptr %6, align 4, !tbaa !3
  %37 = mul nsw i32 6, %36
  %38 = add nsw i32 %37, 4
  %39 = call i32 @Vec_IntEntry(ptr noundef %35, i32 noundef %38)
  %40 = call i32 @Vec_BitEntry(ptr noundef %34, i32 noundef %39)
  %41 = icmp ne i32 %40, 0
  br i1 %41, label %42, label %43

42:                                               ; preds = %33
  br label %58

43:                                               ; preds = %33, %24
  br label %44

44:                                               ; preds = %43, %17
  %45 = load ptr, ptr %4, align 8, !tbaa !27
  %46 = call ptr @Vec_IntArray(ptr noundef %45)
  %47 = load i32, ptr %7, align 4, !tbaa !3
  %48 = add nsw i32 %47, 1
  store i32 %48, ptr %7, align 4, !tbaa !3
  %49 = mul nsw i32 6, %47
  %50 = sext i32 %49 to i64
  %51 = getelementptr inbounds i32, ptr %46, i64 %50
  %52 = load ptr, ptr %4, align 8, !tbaa !27
  %53 = call ptr @Vec_IntArray(ptr noundef %52)
  %54 = load i32, ptr %6, align 4, !tbaa !3
  %55 = mul nsw i32 6, %54
  %56 = sext i32 %55 to i64
  %57 = getelementptr inbounds i32, ptr %53, i64 %56
  call void @llvm.memmove.p0.p0.i64(ptr align 4 %51, ptr align 4 %57, i64 24, i1 false)
  br label %58

58:                                               ; preds = %44, %42
  %59 = load i32, ptr %6, align 4, !tbaa !3
  %60 = add nsw i32 %59, 1
  store i32 %60, ptr %6, align 4, !tbaa !3
  br label %11, !llvm.loop !97

61:                                               ; preds = %11
  %62 = load ptr, ptr %4, align 8, !tbaa !27
  %63 = load i32, ptr %7, align 4, !tbaa !3
  %64 = mul nsw i32 6, %63
  call void @Vec_IntShrink(ptr noundef %62, i32 noundef %64)
  %65 = load ptr, ptr %5, align 8, !tbaa !96
  call void @Vec_BitFree(ptr noundef %65)
  call void @llvm.lifetime.end.p0(i64 4, ptr %7) #12
  call void @llvm.lifetime.end.p0(i64 4, ptr %6) #12
  call void @llvm.lifetime.end.p0(i64 8, ptr %5) #12
  ret void
}