; Function Attrs: nounwind uwtable
define void @Ree_ManRemoveContained(ptr noundef %0, ptr noundef captures(none) %1) local_unnamed_addr #4 {
  %3 = tail call ptr @Ree_CollectInsiders(ptr noundef %0, ptr noundef %1)
  %4 = getelementptr i8, ptr %1, i64 4
  %.val2329 = load i32, ptr %4, align 4, !tbaa !26
  %5 = icmp sgt i32 %.val2329, 0
  br i1 %5, label %.lr.ph, label %._crit_edge

.lr.ph:                                           ; preds = %2
  %6 = getelementptr i8, ptr %1, i64 8
  %7 = getelementptr i8, ptr %3, i64 8
  br label %8

8:                                                ; preds = %.lr.ph, %40
  %.val2333 = phi i32 [ %.val2329, %.lr.ph ], [ %.val23, %40 ]
  %indvars.iv = phi i64 [ 0, %.lr.ph ], [ %indvars.iv.next, %40 ]
  %9 = phi i64 [ 0, %.lr.ph ], [ %41, %40 ]
  %.031 = phi i32 [ 0, %.lr.ph ], [ %.1, %40 ]
  %.val26 = load ptr, ptr %6, align 8, !tbaa !24
  %10 = and i64 %9, 4294967294
  %11 = getelementptr inbounds nuw i32, ptr %.val26, i64 %10
  %12 = getelementptr inbounds nuw i8, ptr %11, i64 8
  %13 = load i32, ptr %12, align 4, !tbaa !17
  %14 = icmp eq i32 %13, 0
  br i1 %14, label %15, label %35

15:                                               ; preds = %8
  %16 = getelementptr inbounds nuw i8, ptr %11, i64 12
  %17 = load i32, ptr %16, align 4, !tbaa !17
  %.val27 = load ptr, ptr %7, align 8, !tbaa !89
  %18 = ashr i32 %17, 5
  %19 = sext i32 %18 to i64
  %20 = getelementptr inbounds i32, ptr %.val27, i64 %19
  %21 = load i32, ptr %20, align 4, !tbaa !17
  %22 = and i32 %17, 31
  %23 = shl nuw i32 1, %22
  %24 = and i32 %21, %23
  %.not = icmp eq i32 %24, 0
  br i1 %.not, label %35, label %25

25:                                               ; preds = %15
  %26 = getelementptr inbounds nuw i8, ptr %11, i64 16
  %27 = load i32, ptr %26, align 4, !tbaa !17
  %28 = ashr i32 %27, 5
  %29 = sext i32 %28 to i64
  %30 = getelementptr inbounds i32, ptr %.val27, i64 %29
  %31 = load i32, ptr %30, align 4, !tbaa !17
  %32 = and i32 %27, 31
  %33 = shl nuw i32 1, %32
  %34 = and i32 %33, %31
  %.not21 = icmp eq i32 %34, 0
  br i1 %.not21, label %35, label %40

35:                                               ; preds = %15, %25, %8
  %36 = add nsw i32 %.031, 1
  %37 = mul nsw i32 %.031, 6
  %38 = sext i32 %37 to i64
  %39 = getelementptr inbounds i32, ptr %.val26, i64 %38
  tail call void @llvm.memmove.p0.p0.i64(ptr noundef nonnull align 4 dereferenceable(24) %39, ptr noundef nonnull align 4 dereferenceable(24) %11, i64 24, i1 false)
  %.val23.pre = load i32, ptr %4, align 4, !tbaa !26
  br label %40

40:                                               ; preds = %25, %35
  %.val23 = phi i32 [ %.val2333, %25 ], [ %.val23.pre, %35 ]
  %.1 = phi i32 [ %.031, %25 ], [ %36, %35 ]
  %indvars.iv.next = add nuw nsw i64 %indvars.iv, 1
  %41 = mul nuw nsw i64 %indvars.iv.next, 6
  %42 = trunc nuw i64 %41 to i32
  %43 = icmp sgt i32 %.val23, %42
  br i1 %43, label %8, label %._crit_edge.loopexit, !llvm.loop !91

._crit_edge.loopexit:                             ; preds = %40
  %44 = mul nsw i32 %.1, 6
  br label %._crit_edge

._crit_edge:                                      ; preds = %._crit_edge.loopexit, %2
  %.0.lcssa = phi i32 [ 0, %2 ], [ %44, %._crit_edge.loopexit ]
  store i32 %.0.lcssa, ptr %4, align 4, !tbaa !26
  %45 = getelementptr inbounds nuw i8, ptr %3, i64 8
  %46 = load ptr, ptr %45, align 8, !tbaa !89
  %.not.i = icmp eq ptr %46, null
  br i1 %.not.i, label %Vec_BitFree.exit, label %47

47:                                               ; preds = %._crit_edge
  tail call void @free(ptr noundef nonnull %46) #21
  br label %Vec_BitFree.exit

Vec_BitFree.exit:                                 ; preds = %._crit_edge, %47
  tail call void @free(ptr noundef nonnull %3) #21
  ret void
}